; Function Attrs: mustprogress nounwind uwtable
define hidden void @_ZN3mbp20arith_project_pluginD2Ev(ptr noundef nonnull align 8 dereferenceable(152) %this) unnamed_addr #4 align 2 personality ptr @__gxx_personality_v0 {
entry:
  store ptr getelementptr inbounds ({ [10 x ptr] }, ptr @_ZTVN3mbp20arith_project_pluginE, i64 0, i32 0, i64 2), ptr %this, align 8
  %m_imp = getelementptr inbounds i8, ptr %this, i64 144
  %0 = load ptr, ptr %m_imp, align 8
  %cmp.i = icmp eq ptr %0, null
  br i1 %cmp.i, label %invoke.cont, label %if.end.i

if.end.i:                                         ; preds = %entry
  invoke void @_ZN6memory10deallocateEPv(ptr noundef nonnull %0)
          to label %invoke.cont unwind label %terminate.lpad

invoke.cont:                                      ; preds = %entry, %if.end.i
  tail call void @_ZN3mbp14project_pluginD2Ev(ptr noundef nonnull align 8 dereferenceable(144) %this) #19
  ret void

terminate.lpad:                                   ; preds = %if.end.i
  %1 = landingpad { ptr, i32 }
          catch ptr null
  %2 = extractvalue { ptr, i32 } %1, 0
  tail call void @__clang_call_terminate(ptr %2) #20
  unreachable
}